; Function Attrs: mustprogress nofree norecurse nosync nounwind memory(read, argmem: readwrite, inaccessiblemem: none) uwtable
define hidden void @_ZN15ClassListParser16skip_whitespacesEv(ptr nocapture noundef nonnull align 8 dereferenceable(520) %0) local_unnamed_addr #6 align 2 {
  %2 = getelementptr inbounds i8, ptr %0, i64 512
  %.promoted = load ptr, ptr %2, align 8
  br label %3

3:                                                ; preds = %.critedge, %1
  %4 = phi ptr [ %6, %.critedge ], [ %.promoted, %1 ]
  %5 = load i8, ptr %4, align 1
  switch i8 %5, label %7 [
    i8 32, label %.critedge
    i8 9, label %.critedge
  ]

.critedge:                                        ; preds = %3, %3
  %6 = getelementptr inbounds i8, ptr %4, i64 1
  store ptr %6, ptr %2, align 8
  br label %3, !llvm.loop !20

7:                                                ; preds = %3
  ret void
}